(lp0
ccopy_reg
_reconstructor
p1
(c__main__
TournamentAI
p2
c__builtin__
object
p3
Ntp4
Rp5
(dp6
S'should_prune_func'
p7
cprune_functions
never_prune
p8
sS'piece_weights_history'
p9
(lp10
(dp11
S'q'
p12
F-3.3448405003428268
sS'r'
p13
F-9.36812839692006
sS'b'
p14
F-7.96454902207449
sS'n'
p15
F-1.25123707715704
sa(dp16
g12
F-4.116768610295142
sg13
F-9.118191529819772
sg14
F-7.156353318523455
sg15
F-2.082800972414411
sa(dp17
g12
F-5.0724262648046645
sg13
F-8.610482034044901
sg14
F-7.156353318523455
sg15
F-2.55831984432022
sa(dp18
g12
F-5.0724262648046645
sg13
F-8.610482034044901
sg14
F-7.156353318523455
sg15
F-2.55831984432022
sa(dp19
g12
F-5.0724262648046645
sg13
F-8.610482034044901
sg14
F-7.156353318523455
sg15
F-2.55831984432022
sasS'color'
p20
I0
sS'tournament_score'
p21
I0
sS'ply'
p22
I2
sS'games_played_id'
p23
(dp24
I0
I4
sI1
I3
ssS'eval_func'
p25
cevaluation_functions
terminal_dict_material_eval
p26
sS'rank_history'
p27
(lp28
I1
aI1
aI1
aI0
aI0
asS'chess'
p29
(iChessBoard
ChessBoard
p30
(dp31
S'moveNumber'
p32
I0
sS'_fifty'
p33
I4
sS'validMoves'
p34
(lp35
sS'_board'
p36
(lp37
(lp38
g13
aS'.'
p39
ag14
ag12
aS'k'
p40
ag39
aS'R'
p41
ag39
aa(lp42
S'p'
p43
ag43
ag39
ag43
ag39
ag39
ag39
ag39
aa(lp44
g39
ag39
ag39
ag39
ag39
ag39
ag39
ag39
aa(lp45
g39
ag39
ag39
ag39
ag14
aS'N'
p46
ag39
aS'P'
p47
aa(lp48
g47
ag39
aS'B'
p49
ag39
ag47
ag39
ag39
ag39
aa(lp50
g39
ag39
ag39
ag39
ag39
ag39
ag39
ag39
aa(lp51
g39
ag47
ag39
ag49
ag39
ag47
ag39
ag39
aa(lp52
g15
ag39
ag39
aS'K'
p53
ag39
ag39
ag39
ag39
aasS'_game_result'
p54
I1
sS'markPos'
p55
(lp56
I-1
aI-1
asS'_turn'
p57
I1
sS'_black_king_location'
p58
(I4
I0
tp59
sS'b_king_y'
p60
I1
sS'b_king_x'
p61
I4
sS'_moves'
p62
(lp63
(lp64
S'P'
p65
a(I4
I6
tp66
a(I4
I4
tp67
aI00
aNaNaI1
aa(lp68
S'P'
p69
a(I4
I1
tp70
a(I4
I3
tp71
aI00
aNaNaI1
aa(lp72
S'N'
p73
a(I1
I7
tp74
a(I2
I5
tp75
aI00
aNaNaI0
aa(lp76
S'Q'
p77
a(I3
I0
tp78
a(I6
I3
tp79
aI00
aNaNaI0
aa(lp80
S'Q'
p81
a(I3
I7
tp82
a(I5
I5
tp83
aI00
aNaNaI0
aa(lp84
S'N'
p85
a(I1
I0
tp86
a(I2
I2
tp87
aI00
aNaNaI0
aa(lp88
S'N'
p89
a(I2
I5
tp90
a(I3
I3
tp91
aI00
aNaNaI0
aa(lp92
S'B'
p93
a(I5
I0
tp94
a(I3
I2
tp95
aI00
aNaNaI0
aa(lp96
S'P'
p97
a(I0
I6
tp98
a(I0
I4
tp99
aI00
aNaNaI1
aa(lp100
S'N'
p101
a(I2
I2
tp102
a(I3
I4
tp103
aI00
aNaNaI0
aa(lp104
S'Q'
p105
a(I5
I5
tp106
a(I7
I5
tp107
aI00
aNaNaI0
aa(lp108
S'N'
p109
a(I3
I4
tp110
a(I2
I6
tp111
aI01
aNaS'+'
p112
aI0
aa(lp113
S'K'
p114
a(I4
I7
tp115
a(I3
I7
tp116
aI00
aNaNaI0
aa(lp117
S'N'
p118
a(I2
I6
tp119
a(I0
I7
tp120
aI01
aNaNaI0
aa(lp121
S'P'
p122
a(I6
I6
tp123
a(I6
I4
tp124
aI00
aNaNaI1
aa(lp125
S'P'
p126
a(I7
I1
tp127
a(I7
I3
tp128
aI00
aNaNaI1
aa(lp129
S'B'
p130
a(I5
I7
tp131
a(I1
I3
tp132
aI00
aNaNaI0
aa(lp133
S'Q'
p134
a(I6
I3
tp135
a(I3
I0
tp136
aI00
aNaNaI0
aa(lp137
S'P'
p138
a(I6
I4
tp139
a(I7
I3
tp140
aI01
aNaNaI0
aa(lp141
S'P'
p142
a(I2
I1
tp143
a(I2
I3
tp144
aI00
aNaNaI1
aa(lp145
S'N'
p146
a(I6
I7
tp147
a(I5
I5
tp148
aI00
aNaNaI0
aa(lp149
S'K'
p150
a(I4
I0
tp151
a(I5
I0
tp152
aI00
aNaNaI0
aa(lp153
S'P'
p154
a(I3
I6
tp155
a(I3
I4
tp156
aI00
aNaNaI1
aa(lp157
S'P'
p158
a(I4
I3
tp159
a(I3
I4
tp160
aI01
aNaNaI0
aa(lp161
S'R'
p162
a(I7
I7
tp163
a(I6
I7
tp164
aI00
aNaNaI0
aa(lp165
S'B'
p166
a(I3
I2
tp167
a(I1
I0
tp168
aI00
aNaNaI0
aa(lp169
S'B'
p170
a(I2
I7
tp171
a(I3
I6
tp172
aI00
aNaNaI0
aa(lp173
S'B'
p174
a(I1
I0
tp175
a(I3
I2
tp176
aI00
aNaNaI0
aa(lp177
S'Q'
p178
a(I7
I5
tp179
a(I5
I3
tp180
aI00
aNaNaI0
aa(lp181
S'B'
p182
a(I3
I2
tp183
a(I1
I0
tp184
aI00
aNaNaI0
aa(lp185
S'R'
p186
a(I6
I7
tp187
a(I6
I2
tp188
aI00
aNaNaI0
aa(lp189
S'R'
p190
a(I7
I0
tp191
a(I7
I1
tp192
aI00
aNaNaI0
aa(lp193
S'P'
p194
a(I7
I6
tp195
a(I7
I4
tp196
aI00
aNaNaI1
aa(lp197
S'P'
p198
a(I2
I3
tp199
a(I2
I4
tp200
aI00
aNaNaI0
aa(lp201
S'B'
p202
a(I1
I3
tp203
a(I2
I4
tp204
aI01
aNaNaI0
aa(lp205
S'K'
p206
a(I5
I0
tp207
a(I4
I0
tp208
aI00
aNaNaI0
aa(lp209
S'R'
p210
a(I6
I2
tp211
a(I6
I7
tp212
aI00
aNaNaI0
aa(lp213
S'P'
p214
a(I6
I1
tp215
a(I6
I2
tp216
aI00
aNaNaI0
aa(lp217
S'P'
p218
a(I7
I3
tp219
a(I6
I2
tp220
aI01
aNaNaI0
aa(lp221
S'P'
p222
a(I5
I1
tp223
a(I6
I2
tp224
aI01
aNaNaI0
aa(lp225
S'Q'
p226
a(I5
I3
tp227
a(I6
I2
tp228
aI01
aNag112
aI0
aa(lp229
S'R'
p230
a(I7
I1
tp231
a(I5
I1
tp232
aI00
aNaNaI0
aa(lp233
S'Q'
p234
a(I6
I2
tp235
a(I5
I1
tp236
aI01
aNag112
aI0
aa(lp237
S'K'
p238
a(I4
I0
tp239
a(I5
I1
tp240
aI01
aNaNaI0
aa(lp241
S'P'
p242
a(I7
I4
tp243
a(I7
I3
tp244
aI00
aNaNaI0
aa(lp245
S'N'
p246
a(I6
I0
tp247
a(I4
I1
tp248
aI00
aNaNaI0
aa(lp249
S'N'
p250
a(I3
I3
tp251
a(I4
I1
tp252
aI01
aNag112
aI0
aa(lp253
S'K'
p254
a(I5
I1
tp255
a(I4
I1
tp256
aI01
aNaNaI0
aa(lp257
S'N'
p258
a(I5
I5
tp259
a(I3
I4
tp260
aI01
aNaNaI0
aa(lp261
S'B'
p262
a(I1
I0
tp263
a(I4
I3
tp264
aI00
aNaNaI0
aa(lp265
S'N'
p266
a(I3
I4
tp267
a(I5
I3
tp268
aI00
aNag112
aI0
aa(lp269
S'K'
p270
a(I4
I1
tp271
a(I4
I0
tp272
aI00
aNaNaI0
aa(lp273
S'R'
p274
a(I6
I7
tp275
a(I6
I0
tp276
aI00
aNaS'#'
p277
aI0
aasS'_reason'
p278
I0
sS'w_king_diag_2'
p279
(lp280
(I5
I6
tp281
a(I3
I8
tp282
a(I6
I5
tp283
a(I2
I9
tp284
a(I7
I4
tp285
a(I1
I10
tp286
a(I8
I3
tp287
a(I0
I11
tp288
a(I9
I2
tp289
a(I-1
I12
tp290
a(I10
I1
tp291
a(I-2
I13
tp292
a(I11
I0
tp293
a(I-3
I14
tp294
asS'w_king_diag_1'
p295
(lp296
(I5
I8
tp297
a(I3
I6
tp298
a(I6
I9
tp299
a(I2
I5
tp300
a(I7
I10
tp301
a(I1
I4
tp302
a(I8
I11
tp303
a(I0
I3
tp304
a(I9
I12
tp305
a(I-1
I2
tp306
a(I10
I13
tp307
a(I-2
I1
tp308
a(I11
I14
tp309
a(I-3
I0
tp310
asS'nodesSearched'
p311
I0
sS'_white_queen_castle'
p312
I0
sS'b_king_diag_2'
p313
(lp314
(I5
I0
tp315
a(I3
I2
tp316
a(I6
I-1
tp317
a(I2
I3
tp318
a(I7
I-2
tp319
a(I1
I4
tp320
a(I8
I-3
tp321
a(I0
I5
tp322
a(I9
I-4
tp323
a(I-1
I6
tp324
a(I10
I-5
tp325
a(I-2
I7
tp326
a(I11
I-6
tp327
a(I-3
I8
tp328
asS'b_king_diag_1'
p329
(lp330
(I5
I2
tp331
a(I3
I0
tp332
a(I6
I3
tp333
a(I2
I-1
tp334
a(I7
I4
tp335
a(I1
I-2
tp336
a(I8
I5
tp337
a(I0
I-3
tp338
a(I9
I6
tp339
a(I-1
I-4
tp340
a(I10
I7
tp341
a(I-2
I-5
tp342
a(I11
I8
tp343
a(I-3
I-6
tp344
asS'mousePos'
p345
(lp346
I-1
aI-1
asS'w_king_y'
p347
I7
sS'_cur_move'
p348
(lp349
g274
ag275
ag276
aI00
aNag277
aI0
asS'_white_king_castle'
p350
I0
sS'_ep'
p351
(lp352
I0
aI0
asS'_three_rep_stack'
p353
(lp354
(lp355
I01
aI01
aI01
aI01
a(lp356
(lp357
g13
ag15
ag14
ag12
ag40
ag14
ag15
ag13
aa(lp358
g43
ag43
ag43
ag43
ag43
ag43
ag43
ag43
aa(lp359
g39
ag39
ag39
ag39
ag39
ag39
ag39
ag39
aa(lp360
g39
ag39
ag39
ag39
ag39
ag39
ag39
ag39
aa(lp361
g39
ag39
ag39
ag39
ag39
ag39
ag39
ag39
aa(lp362
g39
ag39
ag39
ag39
ag39
ag39
ag39
ag39
aa(lp363
g47
ag47
ag47
ag47
ag47
ag47
ag47
ag47
aa(lp364
g41
ag46
ag49
aS'Q'
p365
ag53
ag49
ag46
ag41
aaa(lp366
I0
aI0
aaa(lp367
I1
aI1
aI1
aI1
a(lp368
(lp369
g13
ag15
ag14
ag12
ag40
ag14
ag15
ag13
aa(lp370
g43
ag43
ag43
ag43
ag43
ag43
ag43
ag43
aa(lp371
g39
ag39
ag39
ag39
ag39
ag39
ag39
ag39
aa(lp372
g39
ag39
ag39
ag39
ag39
ag39
ag39
ag39
aa(lp373
g39
ag39
ag39
ag39
ag47
ag39
ag39
ag39
aa(lp374
g39
ag39
ag39
ag39
ag39
ag39
ag39
ag39
aa(lp375
g47
ag47
ag47
ag47
ag39
ag47
ag47
ag47
aa(lp376
g41
ag46
ag49
ag365
ag53
ag49
ag46
ag41
aaa(lp377
I4
aI4
aaa(lp378
I1
aI1
aI1
aI1
a(lp379
(lp380
g13
ag15
ag14
ag12
ag40
ag14
ag15
ag13
aa(lp381
g43
ag43
ag43
ag43
ag39
ag43
ag43
ag43
aa(lp382
g39
ag39
ag39
ag39
ag39
ag39
ag39
ag39
aa(lp383
g39
ag39
ag39
ag39
ag43
ag39
ag39
ag39
aa(lp384
g39
ag39
ag39
ag39
ag47
ag39
ag39
ag39
aa(lp385
g39
ag39
ag39
ag39
ag39
ag39
ag39
ag39
aa(lp386
g47
ag47
ag47
ag47
ag39
ag47
ag47
ag47
aa(lp387
g41
ag46
ag49
ag365
ag53
ag49
ag46
ag41
aaa(lp388
I4
aI3
aaa(lp389
I1
aI1
aI1
aI1
a(lp390
(lp391
g13
ag15
ag14
ag12
ag40
ag14
ag15
ag13
aa(lp392
g43
ag43
ag43
ag43
ag39
ag43
ag43
ag43
aa(lp393
g39
ag39
ag39
ag39
ag39
ag39
ag39
ag39
aa(lp394
g39
ag39
ag39
ag39
ag43
ag39
ag39
ag39
aa(lp395
g39
ag39
ag39
ag39
ag47
ag39
ag39
ag39
aa(lp396
g39
ag39
ag46
ag39
ag39
ag39
ag39
ag39
aa(lp397
g47
ag47
ag47
ag47
ag39
ag47
ag47
ag47
aa(lp398
g41
ag39
ag49
ag365
ag53
ag49
ag46
ag41
aaa(lp399
I0
aI0
aaa(lp400
I1
aI1
aI1
aI1
a(lp401
(lp402
g13
ag15
ag14
ag39
ag40
ag14
ag15
ag13
aa(lp403
g43
ag43
ag43
ag43
ag39
ag43
ag43
ag43
aa(lp404
g39
ag39
ag39
ag39
ag39
ag39
ag39
ag39
aa(lp405
g39
ag39
ag39
ag39
ag43
ag39
ag12
ag39
aa(lp406
g39
ag39
ag39
ag39
ag47
ag39
ag39
ag39
aa(lp407
g39
ag39
ag46
ag39
ag39
ag39
ag39
ag39
aa(lp408
g47
ag47
ag47
ag47
ag39
ag47
ag47
ag47
aa(lp409
g41
ag39
ag49
ag365
ag53
ag49
ag46
ag41
aaa(lp410
I0
aI0
aaa(lp411
I1
aI1
aI1
aI1
a(lp412
(lp413
g13
ag15
ag14
ag39
ag40
ag14
ag15
ag13
aa(lp414
g43
ag43
ag43
ag43
ag39
ag43
ag43
ag43
aa(lp415
g39
ag39
ag39
ag39
ag39
ag39
ag39
ag39
aa(lp416
g39
ag39
ag39
ag39
ag43
ag39
ag12
ag39
aa(lp417
g39
ag39
ag39
ag39
ag47
ag39
ag39
ag39
aa(lp418
g39
ag39
ag46
ag39
ag39
ag365
ag39
ag39
aa(lp419
g47
ag47
ag47
ag47
ag39
ag47
ag47
ag47
aa(lp420
g41
ag39
ag49
ag39
ag53
ag49
ag46
ag41
aaa(lp421
I0
aI0
aaa(lp422
I1
aI1
aI1
aI1
a(lp423
(lp424
g13
ag39
ag14
ag39
ag40
ag14
ag15
ag13
aa(lp425
g43
ag43
ag43
ag43
ag39
ag43
ag43
ag43
aa(lp426
g39
ag39
ag15
ag39
ag39
ag39
ag39
ag39
aa(lp427
g39
ag39
ag39
ag39
ag43
ag39
ag12
ag39
aa(lp428
g39
ag39
ag39
ag39
ag47
ag39
ag39
ag39
aa(lp429
g39
ag39
ag46
ag39
ag39
ag365
ag39
ag39
aa(lp430
g47
ag47
ag47
ag47
ag39
ag47
ag47
ag47
aa(lp431
g41
ag39
ag49
ag39
ag53
ag49
ag46
ag41
aaa(lp432
I0
aI0
aaa(lp433
I1
aI1
aI1
aI1
a(lp434
(lp435
g13
ag39
ag14
ag39
ag40
ag14
ag15
ag13
aa(lp436
g43
ag43
ag43
ag43
ag39
ag43
ag43
ag43
aa(lp437
g39
ag39
ag15
ag39
ag39
ag39
ag39
ag39
aa(lp438
g39
ag39
ag39
ag46
ag43
ag39
ag12
ag39
aa(lp439
g39
ag39
ag39
ag39
ag47
ag39
ag39
ag39
aa(lp440
g39
ag39
ag39
ag39
ag39
ag365
ag39
ag39
aa(lp441
g47
ag47
ag47
ag47
ag39
ag47
ag47
ag47
aa(lp442
g41
ag39
ag49
ag39
ag53
ag49
ag46
ag41
aaa(lp443
I0
aI0
aaa(lp444
I1
aI1
aI1
aI1
a(lp445
(lp446
g13
ag39
ag14
ag39
ag40
ag39
ag15
ag13
aa(lp447
g43
ag43
ag43
ag43
ag39
ag43
ag43
ag43
aa(lp448
g39
ag39
ag15
ag14
ag39
ag39
ag39
ag39
aa(lp449
g39
ag39
ag39
ag46
ag43
ag39
ag12
ag39
aa(lp450
g39
ag39
ag39
ag39
ag47
ag39
ag39
ag39
aa(lp451
g39
ag39
ag39
ag39
ag39
ag365
ag39
ag39
aa(lp452
g47
ag47
ag47
ag47
ag39
ag47
ag47
ag47
aa(lp453
g41
ag39
ag49
ag39
ag53
ag49
ag46
ag41
aaa(lp454
I0
aI0
aaa(lp455
I1
aI1
aI1
aI1
a(lp456
(lp457
g13
ag39
ag14
ag39
ag40
ag39
ag15
ag13
aa(lp458
g43
ag43
ag43
ag43
ag39
ag43
ag43
ag43
aa(lp459
g39
ag39
ag15
ag14
ag39
ag39
ag39
ag39
aa(lp460
g39
ag39
ag39
ag46
ag43
ag39
ag12
ag39
aa(lp461
g47
ag39
ag39
ag39
ag47
ag39
ag39
ag39
aa(lp462
g39
ag39
ag39
ag39
ag39
ag365
ag39
ag39
aa(lp463
g39
ag47
ag47
ag47
ag39
ag47
ag47
ag47
aa(lp464
g41
ag39
ag49
ag39
ag53
ag49
ag46
ag41
aaa(lp465
I0
aI4
aaa(lp466
I1
aI1
aI1
aI1
a(lp467
(lp468
g13
ag39
ag14
ag39
ag40
ag39
ag15
ag13
aa(lp469
g43
ag43
ag43
ag43
ag39
ag43
ag43
ag43
aa(lp470
g39
ag39
ag39
ag14
ag39
ag39
ag39
ag39
aa(lp471
g39
ag39
ag39
ag46
ag43
ag39
ag12
ag39
aa(lp472
g47
ag39
ag39
ag15
ag47
ag39
ag39
ag39
aa(lp473
g39
ag39
ag39
ag39
ag39
ag365
ag39
ag39
aa(lp474
g39
ag47
ag47
ag47
ag39
ag47
ag47
ag47
aa(lp475
g41
ag39
ag49
ag39
ag53
ag49
ag46
ag41
aaa(lp476
I0
aI0
aaa(lp477
I1
aI1
aI1
aI1
a(lp478
(lp479
g13
ag39
ag14
ag39
ag40
ag39
ag15
ag13
aa(lp480
g43
ag43
ag43
ag43
ag39
ag43
ag43
ag43
aa(lp481
g39
ag39
ag39
ag14
ag39
ag39
ag39
ag39
aa(lp482
g39
ag39
ag39
ag46
ag43
ag39
ag12
ag39
aa(lp483
g47
ag39
ag39
ag15
ag47
ag39
ag39
ag39
aa(lp484
g39
ag39
ag39
ag39
ag39
ag39
ag39
ag365
aa(lp485
g39
ag47
ag47
ag47
ag39
ag47
ag47
ag47
aa(lp486
g41
ag39
ag49
ag39
ag53
ag49
ag46
ag41
aaa(lp487
I0
aI0
aaa(lp488
I1
aI1
aI1
aI1
a(lp489
(lp490
g13
ag39
ag14
ag39
ag40
ag39
ag15
ag13
aa(lp491
g43
ag43
ag43
ag43
ag39
ag43
ag43
ag43
aa(lp492
g39
ag39
ag39
ag14
ag39
ag39
ag39
ag39
aa(lp493
g39
ag39
ag39
ag46
ag43
ag39
ag12
ag39
aa(lp494
g47
ag39
ag39
ag39
ag47
ag39
ag39
ag39
aa(lp495
g39
ag39
ag39
ag39
ag39
ag39
ag39
ag365
aa(lp496
g39
ag47
ag15
ag47
ag39
ag47
ag47
ag47
aa(lp497
g41
ag39
ag49
ag39
ag53
ag49
ag46
ag41
aaa(lp498
I0
aI0
aaa(lp499
I00
aI00
aI1
aI1
a(lp500
(lp501
g13
ag39
ag14
ag39
ag40
ag39
ag15
ag13
aa(lp502
g43
ag43
ag43
ag43
ag39
ag43
ag43
ag43
aa(lp503
g39
ag39
ag39
ag14
ag39
ag39
ag39
ag39
aa(lp504
g39
ag39
ag39
ag46
ag43
ag39
ag12
ag39
aa(lp505
g47
ag39
ag39
ag39
ag47
ag39
ag39
ag39
aa(lp506
g39
ag39
ag39
ag39
ag39
ag39
ag39
ag365
aa(lp507
g39
ag47
ag15
ag47
ag39
ag47
ag47
ag47
aa(lp508
g41
ag39
ag49
ag53
ag39
ag49
ag46
ag41
aaa(lp509
I0
aI0
aaa(lp510
I0
aI0
aI1
aI1
a(lp511
(lp512
g13
ag39
ag14
ag39
ag40
ag39
ag15
ag13
aa(lp513
g43
ag43
ag43
ag43
ag39
ag43
ag43
ag43
aa(lp514
g39
ag39
ag39
ag14
ag39
ag39
ag39
ag39
aa(lp515
g39
ag39
ag39
ag46
ag43
ag39
ag12
ag39
aa(lp516
g47
ag39
ag39
ag39
ag47
ag39
ag39
ag39
aa(lp517
g39
ag39
ag39
ag39
ag39
ag39
ag39
ag365
aa(lp518
g39
ag47
ag39
ag47
ag39
ag47
ag47
ag47
aa(lp519
g15
ag39
ag49
ag53
ag39
ag49
ag46
ag41
aaa(lp520
I0
aI0
aaa(lp521
I0
aI0
aI1
aI1
a(lp522
(lp523
g13
ag39
ag14
ag39
ag40
ag39
ag15
ag13
aa(lp524
g43
ag43
ag43
ag43
ag39
ag43
ag43
ag43
aa(lp525
g39
ag39
ag39
ag14
ag39
ag39
ag39
ag39
aa(lp526
g39
ag39
ag39
ag46
ag43
ag39
ag12
ag39
aa(lp527
g47
ag39
ag39
ag39
ag47
ag39
ag47
ag39
aa(lp528
g39
ag39
ag39
ag39
ag39
ag39
ag39
ag365
aa(lp529
g39
ag47
ag39
ag47
ag39
ag47
ag39
ag47
aa(lp530
g15
ag39
ag49
ag53
ag39
ag49
ag46
ag41
aaa(lp531
I6
aI4
aaa(lp532
I0
aI0
aI1
aI1
a(lp533
(lp534
g13
ag39
ag14
ag39
ag40
ag39
ag15
ag13
aa(lp535
g43
ag43
ag43
ag43
ag39
ag43
ag43
ag39
aa(lp536
g39
ag39
ag39
ag14
ag39
ag39
ag39
ag39
aa(lp537
g39
ag39
ag39
ag46
ag43
ag39
ag12
ag43
aa(lp538
g47
ag39
ag39
ag39
ag47
ag39
ag47
ag39
aa(lp539
g39
ag39
ag39
ag39
ag39
ag39
ag39
ag365
aa(lp540
g39
ag47
ag39
ag47
ag39
ag47
ag39
ag47
aa(lp541
g15
ag39
ag49
ag53
ag39
ag49
ag46
ag41
aaa(lp542
I7
aI3
aaa(lp543
I0
aI0
aI1
aI1
a(lp544
(lp545
g13
ag39
ag14
ag39
ag40
ag39
ag15
ag13
aa(lp546
g43
ag43
ag43
ag43
ag39
ag43
ag43
ag39
aa(lp547
g39
ag39
ag39
ag14
ag39
ag39
ag39
ag39
aa(lp548
g39
ag49
ag39
ag46
ag43
ag39
ag12
ag43
aa(lp549
g47
ag39
ag39
ag39
ag47
ag39
ag47
ag39
aa(lp550
g39
ag39
ag39
ag39
ag39
ag39
ag39
ag365
aa(lp551
g39
ag47
ag39
ag47
ag39
ag47
ag39
ag47
aa(lp552
g15
ag39
ag49
ag53
ag39
ag39
ag46
ag41
aaa(lp553
I0
aI0
aaa(lp554
I0
aI0
aI1
aI1
a(lp555
(lp556
g13
ag39
ag14
ag12
ag40
ag39
ag15
ag13
aa(lp557
g43
ag43
ag43
ag43
ag39
ag43
ag43
ag39
aa(lp558
g39
ag39
ag39
ag14
ag39
ag39
ag39
ag39
aa(lp559
g39
ag49
ag39
ag46
ag43
ag39
ag39
ag43
aa(lp560
g47
ag39
ag39
ag39
ag47
ag39
ag47
ag39
aa(lp561
g39
ag39
ag39
ag39
ag39
ag39
ag39
ag365
aa(lp562
g39
ag47
ag39
ag47
ag39
ag47
ag39
ag47
aa(lp563
g15
ag39
ag49
ag53
ag39
ag39
ag46
ag41
aaa(lp564
I0
aI0
aaa(lp565
I0
aI0
aI1
aI1
a(lp566
(lp567
g13
ag39
ag14
ag12
ag40
ag39
ag15
ag13
aa(lp568
g43
ag43
ag43
ag43
ag39
ag43
ag43
ag39
aa(lp569
g39
ag39
ag39
ag14
ag39
ag39
ag39
ag39
aa(lp570
g39
ag49
ag39
ag46
ag43
ag39
ag39
ag47
aa(lp571
g47
ag39
ag39
ag39
ag47
ag39
ag39
ag39
aa(lp572
g39
ag39
ag39
ag39
ag39
ag39
ag39
ag365
aa(lp573
g39
ag47
ag39
ag47
ag39
ag47
ag39
ag47
aa(lp574
g15
ag39
ag49
ag53
ag39
ag39
ag46
ag41
aaa(lp575
I0
aI0
aaa(lp576
I0
aI0
aI1
aI1
a(lp577
(lp578
g13
ag39
ag14
ag12
ag40
ag39
ag15
ag13
aa(lp579
g43
ag43
ag39
ag43
ag39
ag43
ag43
ag39
aa(lp580
g39
ag39
ag39
ag14
ag39
ag39
ag39
ag39
aa(lp581
g39
ag49
ag43
ag46
ag43
ag39
ag39
ag47
aa(lp582
g47
ag39
ag39
ag39
ag47
ag39
ag39
ag39
aa(lp583
g39
ag39
ag39
ag39
ag39
ag39
ag39
ag365
aa(lp584
g39
ag47
ag39
ag47
ag39
ag47
ag39
ag47
aa(lp585
g15
ag39
ag49
ag53
ag39
ag39
ag46
ag41
aaa(lp586
I2
aI3
aaa(lp587
I0
aI0
aI1
aI1
a(lp588
(lp589
g13
ag39
ag14
ag12
ag40
ag39
ag15
ag13
aa(lp590
g43
ag43
ag39
ag43
ag39
ag43
ag43
ag39
aa(lp591
g39
ag39
ag39
ag14
ag39
ag39
ag39
ag39
aa(lp592
g39
ag49
ag43
ag46
ag43
ag39
ag39
ag47
aa(lp593
g47
ag39
ag39
ag39
ag47
ag39
ag39
ag39
aa(lp594
g39
ag39
ag39
ag39
ag39
ag46
ag39
ag365
aa(lp595
g39
ag47
ag39
ag47
ag39
ag47
ag39
ag47
aa(lp596
g15
ag39
ag49
ag53
ag39
ag39
ag39
ag41
aaa(lp597
I0
aI0
aaa(lp598
I0
aI0
aI00
aI00
a(lp599
(lp600
g13
ag39
ag14
ag12
ag39
ag40
ag15
ag13
aa(lp601
g43
ag43
ag39
ag43
ag39
ag43
ag43
ag39
aa(lp602
g39
ag39
ag39
ag14
ag39
ag39
ag39
ag39
aa(lp603
g39
ag49
ag43
ag46
ag43
ag39
ag39
ag47
aa(lp604
g47
ag39
ag39
ag39
ag47
ag39
ag39
ag39
aa(lp605
g39
ag39
ag39
ag39
ag39
ag46
ag39
ag365
aa(lp606
g39
ag47
ag39
ag47
ag39
ag47
ag39
ag47
aa(lp607
g15
ag39
ag49
ag53
ag39
ag39
ag39
ag41
aaa(lp608
I0
aI0
aaa(lp609
I0
aI0
aI0
aI0
a(lp610
(lp611
g13
ag39
ag14
ag12
ag39
ag40
ag15
ag13
aa(lp612
g43
ag43
ag39
ag43
ag39
ag43
ag43
ag39
aa(lp613
g39
ag39
ag39
ag14
ag39
ag39
ag39
ag39
aa(lp614
g39
ag49
ag43
ag46
ag43
ag39
ag39
ag47
aa(lp615
g47
ag39
ag39
ag47
ag47
ag39
ag39
ag39
aa(lp616
g39
ag39
ag39
ag39
ag39
ag46
ag39
ag365
aa(lp617
g39
ag47
ag39
ag39
ag39
ag47
ag39
ag47
aa(lp618
g15
ag39
ag49
ag53
ag39
ag39
ag39
ag41
aaa(lp619
I3
aI4
aaa(lp620
I0
aI0
aI0
aI0
a(lp621
(lp622
g13
ag39
ag14
ag12
ag39
ag40
ag15
ag13
aa(lp623
g43
ag43
ag39
ag43
ag39
ag43
ag43
ag39
aa(lp624
g39
ag39
ag39
ag14
ag39
ag39
ag39
ag39
aa(lp625
g39
ag49
ag43
ag46
ag39
ag39
ag39
ag47
aa(lp626
g47
ag39
ag39
ag43
ag47
ag39
ag39
ag39
aa(lp627
g39
ag39
ag39
ag39
ag39
ag46
ag39
ag365
aa(lp628
g39
ag47
ag39
ag39
ag39
ag47
ag39
ag47
aa(lp629
g15
ag39
ag49
ag53
ag39
ag39
ag39
ag41
aaa(lp630
I0
aI0
aaa(lp631
I00
aI0
aI0
aI0
a(lp632
(lp633
g13
ag39
ag14
ag12
ag39
ag40
ag15
ag13
aa(lp634
g43
ag43
ag39
ag43
ag39
ag43
ag43
ag39
aa(lp635
g39
ag39
ag39
ag14
ag39
ag39
ag39
ag39
aa(lp636
g39
ag49
ag43
ag46
ag39
ag39
ag39
ag47
aa(lp637
g47
ag39
ag39
ag43
ag47
ag39
ag39
ag39
aa(lp638
g39
ag39
ag39
ag39
ag39
ag46
ag39
ag365
aa(lp639
g39
ag47
ag39
ag39
ag39
ag47
ag39
ag47
aa(lp640
g15
ag39
ag49
ag53
ag39
ag39
ag41
ag39
aaa(lp641
I0
aI0
aaa(lp642
I0
aI0
aI0
aI0
a(lp643
(lp644
g13
ag14
ag14
ag12
ag39
ag40
ag15
ag13
aa(lp645
g43
ag43
ag39
ag43
ag39
ag43
ag43
ag39
aa(lp646
g39
ag39
ag39
ag39
ag39
ag39
ag39
ag39
aa(lp647
g39
ag49
ag43
ag46
ag39
ag39
ag39
ag47
aa(lp648
g47
ag39
ag39
ag43
ag47
ag39
ag39
ag39
aa(lp649
g39
ag39
ag39
ag39
ag39
ag46
ag39
ag365
aa(lp650
g39
ag47
ag39
ag39
ag39
ag47
ag39
ag47
aa(lp651
g15
ag39
ag49
ag53
ag39
ag39
ag41
ag39
aaa(lp652
I0
aI0
aaa(lp653
I0
aI0
aI0
aI0
a(lp654
(lp655
g13
ag14
ag14
ag12
ag39
ag40
ag15
ag13
aa(lp656
g43
ag43
ag39
ag43
ag39
ag43
ag43
ag39
aa(lp657
g39
ag39
ag39
ag39
ag39
ag39
ag39
ag39
aa(lp658
g39
ag49
ag43
ag46
ag39
ag39
ag39
ag47
aa(lp659
g47
ag39
ag39
ag43
ag47
ag39
ag39
ag39
aa(lp660
g39
ag39
ag39
ag39
ag39
ag46
ag39
ag365
aa(lp661
g39
ag47
ag39
ag49
ag39
ag47
ag39
ag47
aa(lp662
g15
ag39
ag39
ag53
ag39
ag39
ag41
ag39
aaa(lp663
I0
aI0
aaa(lp664
I0
aI0
aI0
aI0
a(lp665
(lp666
g13
ag39
ag14
ag12
ag39
ag40
ag15
ag13
aa(lp667
g43
ag43
ag39
ag43
ag39
ag43
ag43
ag39
aa(lp668
g39
ag39
ag39
ag14
ag39
ag39
ag39
ag39
aa(lp669
g39
ag49
ag43
ag46
ag39
ag39
ag39
ag47
aa(lp670
g47
ag39
ag39
ag43
ag47
ag39
ag39
ag39
aa(lp671
g39
ag39
ag39
ag39
ag39
ag46
ag39
ag365
aa(lp672
g39
ag47
ag39
ag49
ag39
ag47
ag39
ag47
aa(lp673
g15
ag39
ag39
ag53
ag39
ag39
ag41
ag39
aaa(lp674
I0
aI0
aaa(lp675
I0
aI0
aI0
aI0
a(lp676
(lp677
g13
ag39
ag14
ag12
ag39
ag40
ag15
ag13
aa(lp678
g43
ag43
ag39
ag43
ag39
ag43
ag43
ag39
aa(lp679
g39
ag39
ag39
ag14
ag39
ag39
ag39
ag39
aa(lp680
g39
ag49
ag43
ag46
ag39
ag365
ag39
ag47
aa(lp681
g47
ag39
ag39
ag43
ag47
ag39
ag39
ag39
aa(lp682
g39
ag39
ag39
ag39
ag39
ag46
ag39
ag39
aa(lp683
g39
ag47
ag39
ag49
ag39
ag47
ag39
ag47
aa(lp684
g15
ag39
ag39
ag53
ag39
ag39
ag41
ag39
aaa(lp685
I0
aI0
aaa(lp686
I0
aI0
aI0
aI0
a(lp687
(lp688
g13
ag14
ag14
ag12
ag39
ag40
ag15
ag13
aa(lp689
g43
ag43
ag39
ag43
ag39
ag43
ag43
ag39
aa(lp690
g39
ag39
ag39
ag39
ag39
ag39
ag39
ag39
aa(lp691
g39
ag49
ag43
ag46
ag39
ag365
ag39
ag47
aa(lp692
g47
ag39
ag39
ag43
ag47
ag39
ag39
ag39
aa(lp693
g39
ag39
ag39
ag39
ag39
ag46
ag39
ag39
aa(lp694
g39
ag47
ag39
ag49
ag39
ag47
ag39
ag47
aa(lp695
g15
ag39
ag39
ag53
ag39
ag39
ag41
ag39
aaa(lp696
I0
aI0
aaa(lp697
I0
aI0
aI0
aI0
a(lp698
(lp699
g13
ag14
ag14
ag12
ag39
ag40
ag15
ag13
aa(lp700
g43
ag43
ag39
ag43
ag39
ag43
ag43
ag39
aa(lp701
g39
ag39
ag39
ag39
ag39
ag39
ag41
ag39
aa(lp702
g39
ag49
ag43
ag46
ag39
ag365
ag39
ag47
aa(lp703
g47
ag39
ag39
ag43
ag47
ag39
ag39
ag39
aa(lp704
g39
ag39
ag39
ag39
ag39
ag46
ag39
ag39
aa(lp705
g39
ag47
ag39
ag49
ag39
ag47
ag39
ag47
aa(lp706
g15
ag39
ag39
ag53
ag39
ag39
ag39
ag39
aaa(lp707
I0
aI0
aaa(lp708
I0
aI0
aI00
aI0
a(lp709
(lp710
g13
ag14
ag14
ag12
ag39
ag40
ag15
ag39
aa(lp711
g43
ag43
ag39
ag43
ag39
ag43
ag43
ag13
aa(lp712
g39
ag39
ag39
ag39
ag39
ag39
ag41
ag39
aa(lp713
g39
ag49
ag43
ag46
ag39
ag365
ag39
ag47
aa(lp714
g47
ag39
ag39
ag43
ag47
ag39
ag39
ag39
aa(lp715
g39
ag39
ag39
ag39
ag39
ag46
ag39
ag39
aa(lp716
g39
ag47
ag39
ag49
ag39
ag47
ag39
ag47
aa(lp717
g15
ag39
ag39
ag53
ag39
ag39
ag39
ag39
aaa(lp718
I0
aI0
aaa(lp719
I0
aI0
aI0
aI0
a(lp720
(lp721
g13
ag14
ag14
ag12
ag39
ag40
ag15
ag39
aa(lp722
g43
ag43
ag39
ag43
ag39
ag43
ag43
ag13
aa(lp723
g39
ag39
ag39
ag39
ag39
ag39
ag41
ag39
aa(lp724
g39
ag49
ag43
ag46
ag39
ag365
ag39
ag47
aa(lp725
g47
ag39
ag39
ag43
ag47
ag39
ag39
ag47
aa(lp726
g39
ag39
ag39
ag39
ag39
ag46
ag39
ag39
aa(lp727
g39
ag47
ag39
ag49
ag39
ag47
ag39
ag39
aa(lp728
g15
ag39
ag39
ag53
ag39
ag39
ag39
ag39
aaa(lp729
I7
aI4
aaa(lp730
I0
aI0
aI0
aI0
a(lp731
(lp732
g13
ag14
ag14
ag12
ag39
ag40
ag15
ag39
aa(lp733
g43
ag43
ag39
ag43
ag39
ag43
ag43
ag13
aa(lp734
g39
ag39
ag39
ag39
ag39
ag39
ag41
ag39
aa(lp735
g39
ag49
ag39
ag46
ag39
ag365
ag39
ag47
aa(lp736
g47
ag39
ag43
ag43
ag47
ag39
ag39
ag47
aa(lp737
g39
ag39
ag39
ag39
ag39
ag46
ag39
ag39
aa(lp738
g39
ag47
ag39
ag49
ag39
ag47
ag39
ag39
aa(lp739
g15
ag39
ag39
ag53
ag39
ag39
ag39
ag39
aaa(lp740
I0
aI0
aaa(lp741
I0
aI0
aI0
aI0
a(lp742
(lp743
g13
ag14
ag14
ag12
ag39
ag40
ag15
ag39
aa(lp744
g43
ag43
ag39
ag43
ag39
ag43
ag43
ag13
aa(lp745
g39
ag39
ag39
ag39
ag39
ag39
ag41
ag39
aa(lp746
g39
ag39
ag39
ag46
ag39
ag365
ag39
ag47
aa(lp747
g47
ag39
ag49
ag43
ag47
ag39
ag39
ag47
aa(lp748
g39
ag39
ag39
ag39
ag39
ag46
ag39
ag39
aa(lp749
g39
ag47
ag39
ag49
ag39
ag47
ag39
ag39
aa(lp750
g15
ag39
ag39
ag53
ag39
ag39
ag39
ag39
aaa(lp751
I0
aI0
aaa(lp752
I0
aI0
aI00
aI00
a(lp753
(lp754
g13
ag14
ag14
ag12
ag40
ag39
ag15
ag39
aa(lp755
g43
ag43
ag39
ag43
ag39
ag43
ag43
ag13
aa(lp756
g39
ag39
ag39
ag39
ag39
ag39
ag41
ag39
aa(lp757
g39
ag39
ag39
ag46
ag39
ag365
ag39
ag47
aa(lp758
g47
ag39
ag49
ag43
ag47
ag39
ag39
ag47
aa(lp759
g39
ag39
ag39
ag39
ag39
ag46
ag39
ag39
aa(lp760
g39
ag47
ag39
ag49
ag39
ag47
ag39
ag39
aa(lp761
g15
ag39
ag39
ag53
ag39
ag39
ag39
ag39
aaa(lp762
I0
aI0
aaa(lp763
I0
aI0
aI0
aI0
a(lp764
(lp765
g13
ag14
ag14
ag12
ag40
ag39
ag15
ag39
aa(lp766
g43
ag43
ag39
ag43
ag39
ag43
ag43
ag13
aa(lp767
g39
ag39
ag39
ag39
ag39
ag39
ag39
ag39
aa(lp768
g39
ag39
ag39
ag46
ag39
ag365
ag39
ag47
aa(lp769
g47
ag39
ag49
ag43
ag47
ag39
ag39
ag47
aa(lp770
g39
ag39
ag39
ag39
ag39
ag46
ag39
ag39
aa(lp771
g39
ag47
ag39
ag49
ag39
ag47
ag39
ag39
aa(lp772
g15
ag39
ag39
ag53
ag39
ag39
ag41
ag39
aaa(lp773
I0
aI0
aaa(lp774
I0
aI0
aI0
aI0
a(lp775
(lp776
g13
ag14
ag14
ag12
ag40
ag39
ag15
ag39
aa(lp777
g43
ag43
ag39
ag43
ag39
ag43
ag39
ag13
aa(lp778
g39
ag39
ag39
ag39
ag39
ag39
ag43
ag39
aa(lp779
g39
ag39
ag39
ag46
ag39
ag365
ag39
ag47
aa(lp780
g47
ag39
ag49
ag43
ag47
ag39
ag39
ag47
aa(lp781
g39
ag39
ag39
ag39
ag39
ag46
ag39
ag39
aa(lp782
g39
ag47
ag39
ag49
ag39
ag47
ag39
ag39
aa(lp783
g15
ag39
ag39
ag53
ag39
ag39
ag41
ag39
aaa(lp784
I0
aI0
aaa(lp785
I0
aI0
aI0
aI0
a(lp786
(lp787
g13
ag14
ag14
ag12
ag40
ag39
ag15
ag39
aa(lp788
g43
ag43
ag39
ag43
ag39
ag43
ag39
ag13
aa(lp789
g39
ag39
ag39
ag39
ag39
ag39
ag47
ag39
aa(lp790
g39
ag39
ag39
ag46
ag39
ag365
ag39
ag39
aa(lp791
g47
ag39
ag49
ag43
ag47
ag39
ag39
ag47
aa(lp792
g39
ag39
ag39
ag39
ag39
ag46
ag39
ag39
aa(lp793
g39
ag47
ag39
ag49
ag39
ag47
ag39
ag39
aa(lp794
g15
ag39
ag39
ag53
ag39
ag39
ag41
ag39
aaa(lp795
I0
aI0
aaa(lp796
I0
aI0
aI0
aI0
a(lp797
(lp798
g13
ag14
ag14
ag12
ag40
ag39
ag15
ag39
aa(lp799
g43
ag43
ag39
ag43
ag39
ag39
ag39
ag13
aa(lp800
g39
ag39
ag39
ag39
ag39
ag39
ag43
ag39
aa(lp801
g39
ag39
ag39
ag46
ag39
ag365
ag39
ag39
aa(lp802
g47
ag39
ag49
ag43
ag47
ag39
ag39
ag47
aa(lp803
g39
ag39
ag39
ag39
ag39
ag46
ag39
ag39
aa(lp804
g39
ag47
ag39
ag49
ag39
ag47
ag39
ag39
aa(lp805
g15
ag39
ag39
ag53
ag39
ag39
ag41
ag39
aaa(lp806
I0
aI0
aaa(lp807
I0
aI0
aI0
aI0
a(lp808
(lp809
g13
ag14
ag14
ag12
ag40
ag39
ag15
ag39
aa(lp810
g43
ag43
ag39
ag43
ag39
ag39
ag39
ag13
aa(lp811
g39
ag39
ag39
ag39
ag39
ag39
ag365
ag39
aa(lp812
g39
ag39
ag39
ag46
ag39
ag39
ag39
ag39
aa(lp813
g47
ag39
ag49
ag43
ag47
ag39
ag39
ag47
aa(lp814
g39
ag39
ag39
ag39
ag39
ag46
ag39
ag39
aa(lp815
g39
ag47
ag39
ag49
ag39
ag47
ag39
ag39
aa(lp816
g15
ag39
ag39
ag53
ag39
ag39
ag41
ag39
aaa(lp817
I0
aI0
aaa(lp818
I0
aI0
aI00
aI0
a(lp819
(lp820
g13
ag14
ag14
ag12
ag40
ag39
ag15
ag39
aa(lp821
g43
ag43
ag39
ag43
ag39
ag13
ag39
ag39
aa(lp822
g39
ag39
ag39
ag39
ag39
ag39
ag365
ag39
aa(lp823
g39
ag39
ag39
ag46
ag39
ag39
ag39
ag39
aa(lp824
g47
ag39
ag49
ag43
ag47
ag39
ag39
ag47
aa(lp825
g39
ag39
ag39
ag39
ag39
ag46
ag39
ag39
aa(lp826
g39
ag47
ag39
ag49
ag39
ag47
ag39
ag39
aa(lp827
g15
ag39
ag39
ag53
ag39
ag39
ag41
ag39
aaa(lp828
I0
aI0
aaa(lp829
I0
aI0
aI0
aI0
a(lp830
(lp831
g13
ag14
ag14
ag12
ag40
ag39
ag15
ag39
aa(lp832
g43
ag43
ag39
ag43
ag39
ag365
ag39
ag39
aa(lp833
g39
ag39
ag39
ag39
ag39
ag39
ag39
ag39
aa(lp834
g39
ag39
ag39
ag46
ag39
ag39
ag39
ag39
aa(lp835
g47
ag39
ag49
ag43
ag47
ag39
ag39
ag47
aa(lp836
g39
ag39
ag39
ag39
ag39
ag46
ag39
ag39
aa(lp837
g39
ag47
ag39
ag49
ag39
ag47
ag39
ag39
aa(lp838
g15
ag39
ag39
ag53
ag39
ag39
ag41
ag39
aaa(lp839
I0
aI0
aaa(lp840
I0
aI0
aI00
aI00
a(lp841
(lp842
g13
ag14
ag14
ag12
ag39
ag39
ag15
ag39
aa(lp843
g43
ag43
ag39
ag43
ag39
ag40
ag39
ag39
aa(lp844
g39
ag39
ag39
ag39
ag39
ag39
ag39
ag39
aa(lp845
g39
ag39
ag39
ag46
ag39
ag39
ag39
ag39
aa(lp846
g47
ag39
ag49
ag43
ag47
ag39
ag39
ag47
aa(lp847
g39
ag39
ag39
ag39
ag39
ag46
ag39
ag39
aa(lp848
g39
ag47
ag39
ag49
ag39
ag47
ag39
ag39
aa(lp849
g15
ag39
ag39
ag53
ag39
ag39
ag41
ag39
aaa(lp850
I0
aI0
aaa(lp851
I0
aI0
aI0
aI0
a(lp852
(lp853
g13
ag14
ag14
ag12
ag39
ag39
ag15
ag39
aa(lp854
g43
ag43
ag39
ag43
ag39
ag40
ag39
ag39
aa(lp855
g39
ag39
ag39
ag39
ag39
ag39
ag39
ag39
aa(lp856
g39
ag39
ag39
ag46
ag39
ag39
ag39
ag47
aa(lp857
g47
ag39
ag49
ag43
ag47
ag39
ag39
ag39
aa(lp858
g39
ag39
ag39
ag39
ag39
ag46
ag39
ag39
aa(lp859
g39
ag47
ag39
ag49
ag39
ag47
ag39
ag39
aa(lp860
g15
ag39
ag39
ag53
ag39
ag39
ag41
ag39
aaa(lp861
I0
aI0
aaa(lp862
I0
aI0
aI0
aI0
a(lp863
(lp864
g13
ag14
ag14
ag12
ag39
ag39
ag39
ag39
aa(lp865
g43
ag43
ag39
ag43
ag15
ag40
ag39
ag39
aa(lp866
g39
ag39
ag39
ag39
ag39
ag39
ag39
ag39
aa(lp867
g39
ag39
ag39
ag46
ag39
ag39
ag39
ag47
aa(lp868
g47
ag39
ag49
ag43
ag47
ag39
ag39
ag39
aa(lp869
g39
ag39
ag39
ag39
ag39
ag46
ag39
ag39
aa(lp870
g39
ag47
ag39
ag49
ag39
ag47
ag39
ag39
aa(lp871
g15
ag39
ag39
ag53
ag39
ag39
ag41
ag39
aaa(lp872
I0
aI0
aaa(lp873
I0
aI0
aI0
aI0
a(lp874
(lp875
g13
ag14
ag14
ag12
ag39
ag39
ag39
ag39
aa(lp876
g43
ag43
ag39
ag43
ag46
ag40
ag39
ag39
aa(lp877
g39
ag39
ag39
ag39
ag39
ag39
ag39
ag39
aa(lp878
g39
ag39
ag39
ag39
ag39
ag39
ag39
ag47
aa(lp879
g47
ag39
ag49
ag43
ag47
ag39
ag39
ag39
aa(lp880
g39
ag39
ag39
ag39
ag39
ag46
ag39
ag39
aa(lp881
g39
ag47
ag39
ag49
ag39
ag47
ag39
ag39
aa(lp882
g15
ag39
ag39
ag53
ag39
ag39
ag41
ag39
aaa(lp883
I0
aI0
aaa(lp884
I0
aI0
aI00
aI00
a(lp885
(lp886
g13
ag14
ag14
ag12
ag39
ag39
ag39
ag39
aa(lp887
g43
ag43
ag39
ag43
ag40
ag39
ag39
ag39
aa(lp888
g39
ag39
ag39
ag39
ag39
ag39
ag39
ag39
aa(lp889
g39
ag39
ag39
ag39
ag39
ag39
ag39
ag47
aa(lp890
g47
ag39
ag49
ag43
ag47
ag39
ag39
ag39
aa(lp891
g39
ag39
ag39
ag39
ag39
ag46
ag39
ag39
aa(lp892
g39
ag47
ag39
ag49
ag39
ag47
ag39
ag39
aa(lp893
g15
ag39
ag39
ag53
ag39
ag39
ag41
ag39
aaa(lp894
I0
aI0
aaa(lp895
I0
aI0
aI0
aI0
a(lp896
(lp897
g13
ag14
ag14
ag12
ag39
ag39
ag39
ag39
aa(lp898
g43
ag43
ag39
ag43
ag40
ag39
ag39
ag39
aa(lp899
g39
ag39
ag39
ag39
ag39
ag39
ag39
ag39
aa(lp900
g39
ag39
ag39
ag39
ag39
ag39
ag39
ag47
aa(lp901
g47
ag39
ag49
ag46
ag47
ag39
ag39
ag39
aa(lp902
g39
ag39
ag39
ag39
ag39
ag39
ag39
ag39
aa(lp903
g39
ag47
ag39
ag49
ag39
ag47
ag39
ag39
aa(lp904
g15
ag39
ag39
ag53
ag39
ag39
ag41
ag39
aaa(lp905
I0
aI0
aaa(lp906
I0
aI0
aI0
aI0
a(lp907
(lp908
g13
ag39
ag14
ag12
ag39
ag39
ag39
ag39
aa(lp909
g43
ag43
ag39
ag43
ag40
ag39
ag39
ag39
aa(lp910
g39
ag39
ag39
ag39
ag39
ag39
ag39
ag39
aa(lp911
g39
ag39
ag39
ag39
ag14
ag39
ag39
ag47
aa(lp912
g47
ag39
ag49
ag46
ag47
ag39
ag39
ag39
aa(lp913
g39
ag39
ag39
ag39
ag39
ag39
ag39
ag39
aa(lp914
g39
ag47
ag39
ag49
ag39
ag47
ag39
ag39
aa(lp915
g15
ag39
ag39
ag53
ag39
ag39
ag41
ag39
aaa(lp916
I0
aI0
aaa(lp917
I0
aI0
aI0
aI0
a(lp918
(lp919
g13
ag39
ag14
ag12
ag39
ag39
ag39
ag39
aa(lp920
g43
ag43
ag39
ag43
ag40
ag39
ag39
ag39
aa(lp921
g39
ag39
ag39
ag39
ag39
ag39
ag39
ag39
aa(lp922
g39
ag39
ag39
ag39
ag14
ag46
ag39
ag47
aa(lp923
g47
ag39
ag49
ag39
ag47
ag39
ag39
ag39
aa(lp924
g39
ag39
ag39
ag39
ag39
ag39
ag39
ag39
aa(lp925
g39
ag47
ag39
ag49
ag39
ag47
ag39
ag39
aa(lp926
g15
ag39
ag39
ag53
ag39
ag39
ag41
ag39
aaa(lp927
I0
aI0
aaa(lp928
I0
aI0
aI00
aI00
a(lp929
(lp930
g13
ag39
ag14
ag12
ag40
ag39
ag39
ag39
aa(lp931
g43
ag43
ag39
ag43
ag39
ag39
ag39
ag39
aa(lp932
g39
ag39
ag39
ag39
ag39
ag39
ag39
ag39
aa(lp933
g39
ag39
ag39
ag39
ag14
ag46
ag39
ag47
aa(lp934
g47
ag39
ag49
ag39
ag47
ag39
ag39
ag39
aa(lp935
g39
ag39
ag39
ag39
ag39
ag39
ag39
ag39
aa(lp936
g39
ag47
ag39
ag49
ag39
ag47
ag39
ag39
aa(lp937
g15
ag39
ag39
ag53
ag39
ag39
ag41
ag39
aaa(lp938
I0
aI0
aaa(lp939
I0
aI0
aI0
aI0
a(lp940
(lp941
g13
ag39
ag14
ag12
ag40
ag39
ag41
ag39
aa(lp942
g43
ag43
ag39
ag43
ag39
ag39
ag39
ag39
aa(lp943
g39
ag39
ag39
ag39
ag39
ag39
ag39
ag39
aa(lp944
g39
ag39
ag39
ag39
ag14
ag46
ag39
ag47
aa(lp945
g47
ag39
ag49
ag39
ag47
ag39
ag39
ag39
aa(lp946
g39
ag39
ag39
ag39
ag39
ag39
ag39
ag39
aa(lp947
g39
ag47
ag39
ag49
ag39
ag47
ag39
ag39
aa(lp948
g15
ag39
ag39
ag53
ag39
ag39
ag39
ag39
aaa(lp949
I0
aI0
aaasS'w_king_x'
p950
I4
sS'_black_king_castle'
p951
I0
sS'_state_stack_pointer'
p952
I54
sS'_state_stack'
p953
(lp954
S'rnbqkbnrpppppppp................................PPPPPPPPRNBQKBNR01111000:0'
p955
aS'rnbqkbnrpppppppp....................P...........PPPP.PPPRNBQKBNR11111440:0'
p956
aS'rnbqkbnrpppp.ppp............p.......P...........PPPP.PPPRNBQKBNR01111430:0'
p957
aS'rnbqkbnrpppp.ppp............p.......P.....N.....PPPP.PPPR.BQKBNR11111000:1'
p958
aS'rnb.kbnrpppp.ppp............p.q.....P.....N.....PPPP.PPPR.BQKBNR01111000:2'
p959
aS'rnb.kbnrpppp.ppp............p.q.....P.....N..Q..PPPP.PPPR.B.KBNR11111000:3'
p960
aS'r.b.kbnrpppp.ppp..n.........p.q.....P.....N..Q..PPPP.PPPR.B.KBNR01111000:4'
p961
aS'r.b.kbnrpppp.ppp..n........Np.q.....P........Q..PPPP.PPPR.B.KBNR11111000:5'
p962
aS'r.b.k.nrpppp.ppp..nb.......Np.q.....P........Q..PPPP.PPPR.B.KBNR01111000:6'
p963
aS'r.b.k.nrpppp.ppp..nb.......Np.q.P...P........Q...PPP.PPPR.B.KBNR11111040:0'
p964
aS'r.b.k.nrpppp.ppp...b.......Np.q.P..nP........Q...PPP.PPPR.B.KBNR01111000:1'
p965
aS'r.b.k.nrpppp.ppp...b.......Np.q.P..nP..........Q.PPP.PPPR.B.KBNR11111000:2'
p966
aS'r.b.k.nrpppp.ppp...b.......Np.q.P...P..........Q.PnP.PPPR.B.KBNR01111000:0'
p967
aS'r.b.k.nrpppp.ppp...b.......Np.q.P...P..........Q.PnP.PPPR.BK.BNR10011000:1'
p968
aS'r.b.k.nrpppp.ppp...b.......Np.q.P...P..........Q.P.P.PPPn.BK.BNR00011000:0'
p969
aS'r.b.k.nrpppp.ppp...b.......Np.q.P...P.P........Q.P.P.P.Pn.BK.BNR10011640:0'
p970
aS'r.b.k.nrpppp.pp....b.......Np.qpP...P.P........Q.P.P.P.Pn.BK.BNR00011730:0'
p971
aS'r.b.k.nrpppp.pp....b.....B.Np.qpP...P.P........Q.P.P.P.Pn.BK..NR10011000:1'
p972
aS'r.bqk.nrpppp.pp....b.....B.Np..pP...P.P........Q.P.P.P.Pn.BK..NR00011000:2'
p973
aS'r.bqk.nrpppp.pp....b.....B.Np..PP...P..........Q.P.P.P.Pn.BK..NR10011000:0'
p974
aS'r.bqk.nrpp.p.pp....b.....BpNp..PP...P..........Q.P.P.P.Pn.BK..NR00011230:0'
p975
aS'r.bqk.nrpp.p.pp....b.....BpNp..PP...P........N.Q.P.P.P.Pn.BK...R10011000:1'
p976
aS'r.bq.knrpp.p.pp....b.....BpNp..PP...P........N.Q.P.P.P.Pn.BK...R00000000:2'
p977
aS'r.bq.knrpp.p.pp....b.....BpNp..PP..PP........N.Q.P...P.Pn.BK...R10000340:0'
p978
aS'r.bq.knrpp.p.pp....b.....BpN...PP..pP........N.Q.P...P.Pn.BK...R00000000:0'
p979
aS'r.bq.knrpp.p.pp....b.....BpN...PP..pP........N.Q.P...P.Pn.BK..R.10000000:1'
p980
aS'rbbq.knrpp.p.pp..........BpN...PP..pP........N.Q.P...P.Pn.BK..R.00000000:2'
p981
aS'rbbq.knrpp.p.pp..........BpN...PP..pP........N.Q.P.B.P.Pn..K..R.10000000:3'
p982
aS'r.bq.knrpp.p.pp....b.....BpN...PP..pP........N.Q.P.B.P.Pn..K..R.00000000:4'
p983
aS'r.bq.knrpp.p.pp....b.....BpN.Q.PP..pP........N...P.B.P.Pn..K..R.10000000:5'
p984
aS'rbbq.knrpp.p.pp..........BpN.Q.PP..pP........N...P.B.P.Pn..K..R.00000000:6'
p985
aS'rbbq.knrpp.p.pp.......R..BpN.Q.PP..pP........N...P.B.P.Pn..K....10000000:7'
p986
aS'rbbq.kn.pp.p.ppr......R..BpN.Q.PP..pP........N...P.B.P.Pn..K....00000000:8'
p987
aS'rbbq.kn.pp.p.ppr......R..BpN.Q.PP..pP..P.....N...P.B.P..n..K....10000740:0'
p988
aS'rbbq.kn.pp.p.ppr......R..B.N.Q.PP.ppP..P.....N...P.B.P..n..K....00000000:0'
p989
aS'rbbq.kn.pp.p.ppr......R....N.Q.PP.BpP..P.....N...P.B.P..n..K....10000000:0'
p990
aS'rbbqk.n.pp.p.ppr......R....N.Q.PP.BpP..P.....N...P.B.P..n..K....00000000:1'
p991
aS'rbbqk.n.pp.p.ppr...........N.Q.PP.BpP..P.....N...P.B.P..n..K..R.10000000:2'
p992
aS'rbbqk.n.pp.p.p.r......p....N.Q.PP.BpP..P.....N...P.B.P..n..K..R.00000000:0'
p993
aS'rbbqk.n.pp.p.p.r......P....N.Q..P.BpP..P.....N...P.B.P..n..K..R.10000000:0'
p994
aS'rbbqk.n.pp.p...r......p....N.Q..P.BpP..P.....N...P.B.P..n..K..R.00000000:0'
p995
aS'rbbqk.n.pp.p...r......Q....N....P.BpP..P.....N...P.B.P..n..K..R.10000000:0'
p996
aS'rbbqk.n.pp.p.r........Q....N....P.BpP..P.....N...P.B.P..n..K..R.00000000:1'
p997
aS'rbbqk.n.pp.p.Q.............N....P.BpP..P.....N...P.B.P..n..K..R.10000000:0'
p998
aS'rbbq..n.pp.p.k.............N....P.BpP..P.....N...P.B.P..n..K..R.00000000:0'
p999
aS'rbbq..n.pp.p.k.............N...PP.BpP........N...P.B.P..n..K..R.10000000:0'
p1000
aS'rbbq....pp.pnk.............N...PP.BpP........N...P.B.P..n..K..R.00000000:1'
p1001
aS'rbbq....pp.pNk.................PP.BpP........N...P.B.P..n..K..R.10000000:0'
p1002
aS'rbbq....pp.pk..................PP.BpP........N...P.B.P..n..K..R.00000000:0'
p1003
aS'rbbq....pp.pk..................PP.BNP............P.B.P..n..K..R.10000000:0'
p1004
aS'r.bq....pp.pk...............b..PP.BNP............P.B.P..n..K..R.00000000:1'
p1005
aS'r.bq....pp.pk...............bN.PP.B.P............P.B.P..n..K..R.10000000:2'
p1006
aS'r.bqk...pp.p................bN.PP.B.P............P.B.P..n..K..R.00000000:3'
p1007
aS'r.bqk.R.pp.p................bN.PP.B.P............P.B.P..n..K....10000001:4'
p1008
asS'_black_queen_castle'
p1009
I0
sS'_white_king_location'
p1010
(I3
I7
tp1011
sbsS'id'
p1012
I1
sS'should_go_deeper'
p1013
cQFunctions
simple_end_game
p1014
sS'piece_weights'
p1015
(dp1016
g12
F-5.0724262648046645
sg13
F-8.610482034044901
sg14
F-7.156353318523455
sg15
F-2.55831984432022
ssbag1
(g2
g3
Ntp1017
Rp1018
(dp1019
g7
g8
sg9
(lp1020
(dp1021
g12
F-7.002268717428553
sg13
F-6.819124690522215
sg14
F-3.003395843161706
sg15
F-8.327482325399776
sa(dp1022
g12
F-7.002268717428553
sg13
F-6.819124690522215
sg14
F-3.003395843161706
sg15
F-8.327482325399776
sa(dp1023
g12
F-7.002268717428553
sg13
F-6.819124690522215
sg14
F-3.003395843161706
sg15
F-8.327482325399776
sa(dp1024
g12
F-6.317171645547477
sg13
F-7.781810136237405
sg14
F-3.003395843161706
sg15
F-7.797211878440461
sa(dp1025
g12
F-6.906058335005744
sg13
F-7.345267982694491
sg14
F-3.8204554776454396
sg15
F-7.797211878440461
sasg20
I1
sg21
I0
sg22
I2
sg23
(dp1026
I0
I4
sI1
I3
ssg25
g26
sg27
(lp1027
I0
aI0
aI0
aI1
aI1
asg29
g30
sg1012
I0
sg1013
g1014
sg1015
(dp1028
g12
F-6.906058335005744
sg13
F-7.345267982694491
sg14
F-3.8204554776454396
sg15
F-7.797211878440461
ssba.